
_interrupt:
	MOVWF      R15+0
	SWAPF      STATUS+0, 0
	CLRF       STATUS+0
	MOVWF      ___saveSTATUS+0
	MOVF       PCLATH+0, 0
	MOVWF      ___savePCLATH+0
	CLRF       PCLATH+0

;security.c,23 :: 		void interrupt(void)
;security.c,25 :: 		if(INTCON.RBIF==1)
	BTFSS      INTCON+0, 0
	GOTO       L_interrupt0
;security.c,27 :: 		RBINT_ISR();
	CALL       _RBINT_ISR+0
;security.c,28 :: 		}
L_interrupt0:
;security.c,29 :: 		}
L__interrupt32:
	MOVF       ___savePCLATH+0, 0
	MOVWF      PCLATH+0
	SWAPF      ___saveSTATUS+0, 0
	MOVWF      STATUS+0
	SWAPF      R15+0, 1
	SWAPF      R15+0, 0
	RETFIE
; end of _interrupt

_RBINT_ISR:

;security.c,31 :: 		void RBINT_ISR()                 // Interrupt service routine for PORTB interrupt on change
;security.c,33 :: 		i=PORTB;                         // For every interrupt save the value of PORTB in variable "i"
	MOVF       PORTB+0, 0
	MOVWF      _i+0
;security.c,34 :: 		INTCON.RBIF=0;                   // Must clear PORTB interrupt on change flag
	BCF        INTCON+0, 0
;security.c,35 :: 		}
	RETURN
; end of _RBINT_ISR

_main:

;security.c,50 :: 		void main()
;security.c,53 :: 		char b=0;
	CLRF       main_b_L0+0
;security.c,54 :: 		time=10;
	MOVLW      10
	MOVWF      _time+0
;security.c,55 :: 		ANSELH=0x00;                          // Enable PORTB for Digital input
	CLRF       ANSELH+0
;security.c,56 :: 		TRISC = 0;                            // PORTC as output
	CLRF       TRISC+0
;security.c,57 :: 		TRISB = 0xFF;                         // PORTB as input
	MOVLW      255
	MOVWF      TRISB+0
;security.c,58 :: 		PORTB = 0xFF;                         // Initial value of PORTB on Reset
	MOVLW      255
	MOVWF      PORTB+0
;security.c,59 :: 		IOCB=0xFF;                            // Enable the bits of PORTB for interrupt
	MOVLW      255
	MOVWF      IOCB+0
;security.c,60 :: 		OPTION_REG=0x80;
	MOVLW      128
	MOVWF      OPTION_REG+0
;security.c,61 :: 		INTCON=0xC8;                          // PORTB Interrupt on change enabled
	MOVLW      200
	MOVWF      INTCON+0
;security.c,62 :: 		Lcd_Init();                           // Initialize LCD, Built in function
	CALL       _Lcd_Init+0
;security.c,63 :: 		Lcd_Cmd(_LCD_CURSOR_OFF);             // Cursor off
	MOVLW      12
	MOVWF      FARG_Lcd_Cmd_out_char+0
	CALL       _Lcd_Cmd+0
;security.c,64 :: 		i=PORTB;                              // Save PORTB value in variable
	MOVF       PORTB+0, 0
	MOVWF      _i+0
;security.c,65 :: 		abc:
___main_abc:
;security.c,66 :: 		time=10;
	MOVLW      10
	MOVWF      _time+0
;security.c,67 :: 		b=1;
	MOVLW      1
	MOVWF      main_b_L0+0
;security.c,69 :: 		ARMED=0;
	BCF        PORTC+0, 6
;security.c,70 :: 		BREACH=0;
	BCF        PORTC+0, 7
;security.c,71 :: 		while(1)
L_main1:
;security.c,73 :: 		while(time>0)
L_main3:
	MOVF       _time+0, 0
	SUBLW      0
	BTFSC      STATUS+0, 0
	GOTO       L_main4
;security.c,76 :: 		t1=time/10;         //////////////////////////////////////////////////////
	MOVLW      10
	MOVWF      R4+0
	MOVF       _time+0, 0
	MOVWF      R0+0
	CALL       _Div_8x8_U+0
	MOVF       R0+0, 0
	MOVWF      _t1+0
;security.c,77 :: 		q1=time%10;         //////////////////////////////////////////////////////
	MOVLW      10
	MOVWF      R4+0
	MOVF       _time+0, 0
	MOVWF      R0+0
	CALL       _Div_8x8_U+0
	MOVF       R8+0, 0
	MOVWF      R0+0
	MOVF       R0+0, 0
	MOVWF      _q1+0
;security.c,78 :: 		w1=t1%10;
	MOVLW      10
	MOVWF      R4+0
	MOVF       _t1+0, 0
	MOVWF      R0+0
	CALL       _Div_8x8_U+0
	MOVF       R8+0, 0
	MOVWF      R0+0
	MOVF       R0+0, 0
	MOVWF      _w1+0
;security.c,79 :: 		e1=t1/10;           ////// Conversion of decimal value of ///////////////
	MOVLW      10
	MOVWF      R4+0
	MOVF       _t1+0, 0
	MOVWF      R0+0
	CALL       _Div_8x8_U+0
	MOVF       R0+0, 0
	MOVWF      _e1+0
;security.c,80 :: 		q1=q1|0x30;         ////// count down timer to Ascii to /////////////////
	MOVLW      48
	IORWF      _q1+0, 1
;security.c,81 :: 		w1=w1|0x30;         ////// display it on LCD ////////////////////////////
	MOVLW      48
	IORWF      _w1+0, 1
;security.c,82 :: 		e1=e1|0x30;         //////////////////////////////////////////////////////
	MOVLW      48
	IORWF      R0+0, 0
	MOVWF      _e1+0
;security.c,84 :: 		if(i>8)
	MOVF       _i+0, 0
	SUBLW      8
	BTFSC      STATUS+0, 0
	GOTO       L_main5
;security.c,85 :: 		--time;             // Decrease the timer value if i>8
	DECF       _time+0, 1
L_main5:
;security.c,87 :: 		system();           // Function to display the status of security on LCD according to input
	CALL       _system+0
;security.c,88 :: 		Delay_ms(999);      // To produce a delay of 1 sec
	MOVLW      13
	MOVWF      R11+0
	MOVLW      172
	MOVWF      R12+0
	MOVLW      119
	MOVWF      R13+0
L_main6:
	DECFSZ     R13+0, 1
	GOTO       L_main6
	DECFSZ     R12+0, 1
	GOTO       L_main6
	DECFSZ     R11+0, 1
	GOTO       L_main6
;security.c,90 :: 		Lcd_Cmd(_LCD_CLEAR);                // Clear display
	MOVLW      1
	MOVWF      FARG_Lcd_Cmd_out_char+0
	CALL       _Lcd_Cmd+0
;security.c,91 :: 		Lcd_Cmd(_LCD_CURSOR_OFF);           // Cursor off
	MOVLW      12
	MOVWF      FARG_Lcd_Cmd_out_char+0
	CALL       _Lcd_Cmd+0
;security.c,92 :: 		}
	GOTO       L_main3
L_main4:
;security.c,94 :: 		if(i==15 && a>0)                    // Condition to check that system is armed or not
	MOVF       _i+0, 0
	XORLW      15
	BTFSS      STATUS+0, 2
	GOTO       L_main9
	MOVF       _a+0, 0
	SUBLW      0
	BTFSC      STATUS+0, 0
	GOTO       L_main9
L__main31:
;security.c,96 :: 		Lcd_Out(1,1,txt11);                 // Write "System Armed" on LCD
	MOVLW      1
	MOVWF      FARG_Lcd_Out_row+0
	MOVLW      1
	MOVWF      FARG_Lcd_Out_column+0
	MOVLW      _txt11+0
	MOVWF      FARG_Lcd_Out_text+0
	CALL       _Lcd_Out+0
;security.c,97 :: 		ARMED=1;                            // LED to indicate that system is armed
	BSF        PORTC+0, 6
;security.c,98 :: 		b=0;                                // Controls the security breach loop
	CLRF       main_b_L0+0
;security.c,99 :: 		}
L_main9:
;security.c,100 :: 		while(b)                            // start of security breach loop
L_main10:
	MOVF       main_b_L0+0, 0
	BTFSC      STATUS+0, 2
	GOTO       L_main11
;security.c,102 :: 		Lcd_Cmd(_LCD_CLEAR);                // Clear display
	MOVLW      1
	MOVWF      FARG_Lcd_Cmd_out_char+0
	CALL       _Lcd_Cmd+0
;security.c,103 :: 		Lcd_Cmd(_LCD_CURSOR_OFF);           // Cursor off
	MOVLW      12
	MOVWF      FARG_Lcd_Cmd_out_char+0
	CALL       _Lcd_Cmd+0
;security.c,104 :: 		Lcd_Out(1,1,txt12);                 // Write "Breach" on LCD
	MOVLW      1
	MOVWF      FARG_Lcd_Out_row+0
	MOVLW      1
	MOVWF      FARG_Lcd_Out_column+0
	MOVLW      _txt12+0
	MOVWF      FARG_Lcd_Out_text+0
	CALL       _Lcd_Out+0
;security.c,105 :: 		Delay_ms(1000);
	MOVLW      13
	MOVWF      R11+0
	MOVLW      175
	MOVWF      R12+0
	MOVLW      182
	MOVWF      R13+0
L_main12:
	DECFSZ     R13+0, 1
	GOTO       L_main12
	DECFSZ     R12+0, 1
	GOTO       L_main12
	DECFSZ     R11+0, 1
	GOTO       L_main12
	NOP
;security.c,106 :: 		BREACH=1;                           // LED to indicate that system is breached
	BSF        PORTC+0, 7
;security.c,107 :: 		}
	GOTO       L_main10
L_main11:
;security.c,109 :: 		if(i<15)                            // Condition to check that system is breached after successful system arming or not
	MOVLW      15
	SUBWF      _i+0, 0
	BTFSC      STATUS+0, 0
	GOTO       L_main13
;security.c,111 :: 		--a;
	DECF       _a+0, 1
;security.c,112 :: 		goto abc;                           // Jump back to the start of code to check the security breach after successful system arming
	GOTO       ___main_abc
;security.c,113 :: 		}
L_main13:
;security.c,115 :: 		}
	GOTO       L_main1
;security.c,116 :: 		}
	GOTO       $+0
; end of _main

_system:

;security.c,118 :: 		void system()
;security.c,120 :: 		switch(i)                             // Compare the value of i and display message accordigly
	GOTO       L_system14
;security.c,122 :: 		case 1:
L_system16:
;security.c,123 :: 		Lcd_Out(1,1,txt2);                 // Write "Zone 1 Armed" on LCD
	MOVLW      1
	MOVWF      FARG_Lcd_Out_row+0
	MOVLW      1
	MOVWF      FARG_Lcd_Out_column+0
	MOVLW      _txt2+0
	MOVWF      FARG_Lcd_Out_text+0
	CALL       _Lcd_Out+0
;security.c,124 :: 		time=10;                           // Reset the value of timer
	MOVLW      10
	MOVWF      _time+0
;security.c,125 :: 		a=1;
	MOVLW      1
	MOVWF      _a+0
;security.c,126 :: 		break;
	GOTO       L_system15
;security.c,128 :: 		case 2:
L_system17:
;security.c,129 :: 		Lcd_Out(1,1,txt3);                 // Write "Zone 2 Armed" on LCD
	MOVLW      1
	MOVWF      FARG_Lcd_Out_row+0
	MOVLW      1
	MOVWF      FARG_Lcd_Out_column+0
	MOVLW      _txt3+0
	MOVWF      FARG_Lcd_Out_text+0
	CALL       _Lcd_Out+0
;security.c,130 :: 		time=10;                           // Reset the value of timer
	MOVLW      10
	MOVWF      _time+0
;security.c,131 :: 		a=1;
	MOVLW      1
	MOVWF      _a+0
;security.c,132 :: 		break;
	GOTO       L_system15
;security.c,134 :: 		case 3:
L_system18:
;security.c,135 :: 		Lcd_Out(1,1,txt5);                 // Write "Zone 1&2 Armed" on LCD
	MOVLW      1
	MOVWF      FARG_Lcd_Out_row+0
	MOVLW      1
	MOVWF      FARG_Lcd_Out_column+0
	MOVLW      _txt5+0
	MOVWF      FARG_Lcd_Out_text+0
	CALL       _Lcd_Out+0
;security.c,136 :: 		time=10;                           // Reset the value of timer
	MOVLW      10
	MOVWF      _time+0
;security.c,137 :: 		a=1;
	MOVLW      1
	MOVWF      _a+0
;security.c,138 :: 		break;
	GOTO       L_system15
;security.c,140 :: 		case 4:
L_system19:
;security.c,141 :: 		Lcd_Out(1,1,txt4);                 // Write "Zone 3 Armed" on LCD
	MOVLW      1
	MOVWF      FARG_Lcd_Out_row+0
	MOVLW      1
	MOVWF      FARG_Lcd_Out_column+0
	MOVLW      _txt4+0
	MOVWF      FARG_Lcd_Out_text+0
	CALL       _Lcd_Out+0
;security.c,142 :: 		time=10;                           // Reset the value of timer
	MOVLW      10
	MOVWF      _time+0
;security.c,143 :: 		a=1;
	MOVLW      1
	MOVWF      _a+0
;security.c,144 :: 		break;
	GOTO       L_system15
;security.c,146 :: 		case 5:
L_system20:
;security.c,147 :: 		Lcd_Out(1,1,txt6);                 // Write "Zone 1&3 Armed" on LCD
	MOVLW      1
	MOVWF      FARG_Lcd_Out_row+0
	MOVLW      1
	MOVWF      FARG_Lcd_Out_column+0
	MOVLW      _txt6+0
	MOVWF      FARG_Lcd_Out_text+0
	CALL       _Lcd_Out+0
;security.c,148 :: 		time=10;                           // Reset the value of timer
	MOVLW      10
	MOVWF      _time+0
;security.c,149 :: 		a=1;
	MOVLW      1
	MOVWF      _a+0
;security.c,150 :: 		break;
	GOTO       L_system15
;security.c,152 :: 		case 6:
L_system21:
;security.c,153 :: 		Lcd_Out(1,1,txt7);                 // Write "Zone 2&3 Armed" on LCD
	MOVLW      1
	MOVWF      FARG_Lcd_Out_row+0
	MOVLW      1
	MOVWF      FARG_Lcd_Out_column+0
	MOVLW      _txt7+0
	MOVWF      FARG_Lcd_Out_text+0
	CALL       _Lcd_Out+0
;security.c,154 :: 		time=10;                           // Reset the value of timer
	MOVLW      10
	MOVWF      _time+0
;security.c,155 :: 		a=1;
	MOVLW      1
	MOVWF      _a+0
;security.c,156 :: 		break;
	GOTO       L_system15
;security.c,158 :: 		case 7:
L_system22:
;security.c,159 :: 		Lcd_Out(1,1,txt8);                 // Write "Ready to Arm" on LCD
	MOVLW      1
	MOVWF      FARG_Lcd_Out_row+0
	MOVLW      1
	MOVWF      FARG_Lcd_Out_column+0
	MOVLW      _txt8+0
	MOVWF      FARG_Lcd_Out_text+0
	CALL       _Lcd_Out+0
;security.c,160 :: 		time=10;                           // Reset the value of timer
	MOVLW      10
	MOVWF      _time+0
;security.c,161 :: 		a=1;
	MOVLW      1
	MOVWF      _a+0
;security.c,162 :: 		break;
	GOTO       L_system15
;security.c,164 :: 		case 9:
L_system23:
;security.c,165 :: 		Lcd_Out(1,1,txt2);                 // Write "Zone 1 Armed" on LCD, when the button to arm system is pressed
	MOVLW      1
	MOVWF      FARG_Lcd_Out_row+0
	MOVLW      1
	MOVWF      FARG_Lcd_Out_column+0
	MOVLW      _txt2+0
	MOVWF      FARG_Lcd_Out_text+0
	CALL       _Lcd_Out+0
;security.c,166 :: 		Lcd_Chr(2, 4, w1);                 // Write the MSB ASCii value of timer on LCD
	MOVLW      2
	MOVWF      FARG_Lcd_Chr_row+0
	MOVLW      4
	MOVWF      FARG_Lcd_Chr_column+0
	MOVF       _w1+0, 0
	MOVWF      FARG_Lcd_Chr_out_char+0
	CALL       _Lcd_Chr+0
;security.c,167 :: 		Lcd_Chr(2, 5, q1);                 // Write the LSB ASCii value of timer on LCD
	MOVLW      2
	MOVWF      FARG_Lcd_Chr_row+0
	MOVLW      5
	MOVWF      FARG_Lcd_Chr_column+0
	MOVF       _q1+0, 0
	MOVWF      FARG_Lcd_Chr_out_char+0
	CALL       _Lcd_Chr+0
;security.c,168 :: 		Lcd_Out(2,6,txt10);                // Write "Sec" on LCD
	MOVLW      2
	MOVWF      FARG_Lcd_Out_row+0
	MOVLW      6
	MOVWF      FARG_Lcd_Out_column+0
	MOVLW      _txt10+0
	MOVWF      FARG_Lcd_Out_text+0
	CALL       _Lcd_Out+0
;security.c,169 :: 		break;
	GOTO       L_system15
;security.c,171 :: 		case 10:
L_system24:
;security.c,172 :: 		Lcd_Out(1,1,txt3);                 // Write "Zone 2 Armed" on LCD, when the button to arm system is pressed
	MOVLW      1
	MOVWF      FARG_Lcd_Out_row+0
	MOVLW      1
	MOVWF      FARG_Lcd_Out_column+0
	MOVLW      _txt3+0
	MOVWF      FARG_Lcd_Out_text+0
	CALL       _Lcd_Out+0
;security.c,173 :: 		Lcd_Chr(2, 4, w1);                 // Write the MSB ASCii value of timer on LCD
	MOVLW      2
	MOVWF      FARG_Lcd_Chr_row+0
	MOVLW      4
	MOVWF      FARG_Lcd_Chr_column+0
	MOVF       _w1+0, 0
	MOVWF      FARG_Lcd_Chr_out_char+0
	CALL       _Lcd_Chr+0
;security.c,174 :: 		Lcd_Chr(2, 5, q1);                 // Write the LSB ASCii value of timer on LCD
	MOVLW      2
	MOVWF      FARG_Lcd_Chr_row+0
	MOVLW      5
	MOVWF      FARG_Lcd_Chr_column+0
	MOVF       _q1+0, 0
	MOVWF      FARG_Lcd_Chr_out_char+0
	CALL       _Lcd_Chr+0
;security.c,175 :: 		Lcd_Out(2,6,txt10);                // Write "Sec" on LCD
	MOVLW      2
	MOVWF      FARG_Lcd_Out_row+0
	MOVLW      6
	MOVWF      FARG_Lcd_Out_column+0
	MOVLW      _txt10+0
	MOVWF      FARG_Lcd_Out_text+0
	CALL       _Lcd_Out+0
;security.c,176 :: 		break;
	GOTO       L_system15
;security.c,178 :: 		case 11:
L_system25:
;security.c,179 :: 		Lcd_Out(1,1,txt5);                 // Write "Zone 1&2 Armed" on LCD, when the button to arm system is pressed
	MOVLW      1
	MOVWF      FARG_Lcd_Out_row+0
	MOVLW      1
	MOVWF      FARG_Lcd_Out_column+0
	MOVLW      _txt5+0
	MOVWF      FARG_Lcd_Out_text+0
	CALL       _Lcd_Out+0
;security.c,180 :: 		Lcd_Chr(2, 4, w1);                 // Write the MSB ASCii value of timer on LCD
	MOVLW      2
	MOVWF      FARG_Lcd_Chr_row+0
	MOVLW      4
	MOVWF      FARG_Lcd_Chr_column+0
	MOVF       _w1+0, 0
	MOVWF      FARG_Lcd_Chr_out_char+0
	CALL       _Lcd_Chr+0
;security.c,181 :: 		Lcd_Chr(2, 5, q1);                 // Write the LSB ASCii value of timer on LCD
	MOVLW      2
	MOVWF      FARG_Lcd_Chr_row+0
	MOVLW      5
	MOVWF      FARG_Lcd_Chr_column+0
	MOVF       _q1+0, 0
	MOVWF      FARG_Lcd_Chr_out_char+0
	CALL       _Lcd_Chr+0
;security.c,182 :: 		Lcd_Out(2,6,txt10);                // Write "Sec" on LCD
	MOVLW      2
	MOVWF      FARG_Lcd_Out_row+0
	MOVLW      6
	MOVWF      FARG_Lcd_Out_column+0
	MOVLW      _txt10+0
	MOVWF      FARG_Lcd_Out_text+0
	CALL       _Lcd_Out+0
;security.c,183 :: 		break;
	GOTO       L_system15
;security.c,185 :: 		case 12:
L_system26:
;security.c,186 :: 		Lcd_Out(1,1,txt4);                 // Write "Zone 3 Armed" on LCD, when the button to arm system is pressed
	MOVLW      1
	MOVWF      FARG_Lcd_Out_row+0
	MOVLW      1
	MOVWF      FARG_Lcd_Out_column+0
	MOVLW      _txt4+0
	MOVWF      FARG_Lcd_Out_text+0
	CALL       _Lcd_Out+0
;security.c,187 :: 		Lcd_Chr(2, 4, w1);                 // Write the MSB ASCii value of timer on LCD
	MOVLW      2
	MOVWF      FARG_Lcd_Chr_row+0
	MOVLW      4
	MOVWF      FARG_Lcd_Chr_column+0
	MOVF       _w1+0, 0
	MOVWF      FARG_Lcd_Chr_out_char+0
	CALL       _Lcd_Chr+0
;security.c,188 :: 		Lcd_Chr(2, 5, q1);                 // Write the LSB ASCii value of timer on LCD
	MOVLW      2
	MOVWF      FARG_Lcd_Chr_row+0
	MOVLW      5
	MOVWF      FARG_Lcd_Chr_column+0
	MOVF       _q1+0, 0
	MOVWF      FARG_Lcd_Chr_out_char+0
	CALL       _Lcd_Chr+0
;security.c,189 :: 		Lcd_Out(2,6,txt10);                // Write "Sec" on LCD
	MOVLW      2
	MOVWF      FARG_Lcd_Out_row+0
	MOVLW      6
	MOVWF      FARG_Lcd_Out_column+0
	MOVLW      _txt10+0
	MOVWF      FARG_Lcd_Out_text+0
	CALL       _Lcd_Out+0
;security.c,190 :: 		break;
	GOTO       L_system15
;security.c,192 :: 		case 13:
L_system27:
;security.c,193 :: 		Lcd_Out(1,1,txt6);                 // Write "Zone 1&3 Armed" on LCD, when the button to arm system is pressed
	MOVLW      1
	MOVWF      FARG_Lcd_Out_row+0
	MOVLW      1
	MOVWF      FARG_Lcd_Out_column+0
	MOVLW      _txt6+0
	MOVWF      FARG_Lcd_Out_text+0
	CALL       _Lcd_Out+0
;security.c,194 :: 		Lcd_Chr(2, 4, w1);                 // Write the MSB ASCii value of timer on LCD
	MOVLW      2
	MOVWF      FARG_Lcd_Chr_row+0
	MOVLW      4
	MOVWF      FARG_Lcd_Chr_column+0
	MOVF       _w1+0, 0
	MOVWF      FARG_Lcd_Chr_out_char+0
	CALL       _Lcd_Chr+0
;security.c,195 :: 		Lcd_Chr(2, 5, q1);                 // Write the LSB ASCii value of timer on LCD
	MOVLW      2
	MOVWF      FARG_Lcd_Chr_row+0
	MOVLW      5
	MOVWF      FARG_Lcd_Chr_column+0
	MOVF       _q1+0, 0
	MOVWF      FARG_Lcd_Chr_out_char+0
	CALL       _Lcd_Chr+0
;security.c,196 :: 		Lcd_Out(2,6,txt10);                // Write "Sec" on LCD
	MOVLW      2
	MOVWF      FARG_Lcd_Out_row+0
	MOVLW      6
	MOVWF      FARG_Lcd_Out_column+0
	MOVLW      _txt10+0
	MOVWF      FARG_Lcd_Out_text+0
	CALL       _Lcd_Out+0
;security.c,197 :: 		break;
	GOTO       L_system15
;security.c,199 :: 		case 14:
L_system28:
;security.c,200 :: 		Lcd_Out(1,1,txt7);                 // Write "Zone 2&3 Armed" on LCD, when the button to arm system is pressed
	MOVLW      1
	MOVWF      FARG_Lcd_Out_row+0
	MOVLW      1
	MOVWF      FARG_Lcd_Out_column+0
	MOVLW      _txt7+0
	MOVWF      FARG_Lcd_Out_text+0
	CALL       _Lcd_Out+0
;security.c,201 :: 		Lcd_Chr(2, 4, w1);                 // Write the MSB ASCii value of timer on LCD
	MOVLW      2
	MOVWF      FARG_Lcd_Chr_row+0
	MOVLW      4
	MOVWF      FARG_Lcd_Chr_column+0
	MOVF       _w1+0, 0
	MOVWF      FARG_Lcd_Chr_out_char+0
	CALL       _Lcd_Chr+0
;security.c,202 :: 		Lcd_Chr(2, 5, q1);                 // Write the LSB ASCii value of timer on LCD
	MOVLW      2
	MOVWF      FARG_Lcd_Chr_row+0
	MOVLW      5
	MOVWF      FARG_Lcd_Chr_column+0
	MOVF       _q1+0, 0
	MOVWF      FARG_Lcd_Chr_out_char+0
	CALL       _Lcd_Chr+0
;security.c,203 :: 		Lcd_Out(2,6,txt10);                // Write "Sec" on LCD
	MOVLW      2
	MOVWF      FARG_Lcd_Out_row+0
	MOVLW      6
	MOVWF      FARG_Lcd_Out_column+0
	MOVLW      _txt10+0
	MOVWF      FARG_Lcd_Out_text+0
	CALL       _Lcd_Out+0
;security.c,204 :: 		break;
	GOTO       L_system15
;security.c,206 :: 		case 15:
L_system29:
;security.c,207 :: 		Lcd_Out(1,1,txt9);                 // Write "System Armed in" on LCD
	MOVLW      1
	MOVWF      FARG_Lcd_Out_row+0
	MOVLW      1
	MOVWF      FARG_Lcd_Out_column+0
	MOVLW      _txt9+0
	MOVWF      FARG_Lcd_Out_text+0
	CALL       _Lcd_Out+0
;security.c,208 :: 		Lcd_Chr(2, 4, w1);                 // Write the MSB ASCii value of timer on LCD
	MOVLW      2
	MOVWF      FARG_Lcd_Chr_row+0
	MOVLW      4
	MOVWF      FARG_Lcd_Chr_column+0
	MOVF       _w1+0, 0
	MOVWF      FARG_Lcd_Chr_out_char+0
	CALL       _Lcd_Chr+0
;security.c,209 :: 		Lcd_Chr(2, 5, q1);                 // Write the LSB ASCii value of timer on LCD
	MOVLW      2
	MOVWF      FARG_Lcd_Chr_row+0
	MOVLW      5
	MOVWF      FARG_Lcd_Chr_column+0
	MOVF       _q1+0, 0
	MOVWF      FARG_Lcd_Chr_out_char+0
	CALL       _Lcd_Chr+0
;security.c,210 :: 		Lcd_Out(2,6,txt10);                // Write "Sec" on LCD
	MOVLW      2
	MOVWF      FARG_Lcd_Out_row+0
	MOVLW      6
	MOVWF      FARG_Lcd_Out_column+0
	MOVLW      _txt10+0
	MOVWF      FARG_Lcd_Out_text+0
	CALL       _Lcd_Out+0
;security.c,211 :: 		break;
	GOTO       L_system15
;security.c,213 :: 		default:
L_system30:
;security.c,214 :: 		Lcd_Out(1,1,txt1);                 // Write "No Zone is Armed"
	MOVLW      1
	MOVWF      FARG_Lcd_Out_row+0
	MOVLW      1
	MOVWF      FARG_Lcd_Out_column+0
	MOVLW      _txt1+0
	MOVWF      FARG_Lcd_Out_text+0
	CALL       _Lcd_Out+0
;security.c,215 :: 		a=1;
	MOVLW      1
	MOVWF      _a+0
;security.c,216 :: 		break;
	GOTO       L_system15
;security.c,217 :: 		}
L_system14:
	MOVF       _i+0, 0
	XORLW      1
	BTFSC      STATUS+0, 2
	GOTO       L_system16
	MOVF       _i+0, 0
	XORLW      2
	BTFSC      STATUS+0, 2
	GOTO       L_system17
	MOVF       _i+0, 0
	XORLW      3
	BTFSC      STATUS+0, 2
	GOTO       L_system18
	MOVF       _i+0, 0
	XORLW      4
	BTFSC      STATUS+0, 2
	GOTO       L_system19
	MOVF       _i+0, 0
	XORLW      5
	BTFSC      STATUS+0, 2
	GOTO       L_system20
	MOVF       _i+0, 0
	XORLW      6
	BTFSC      STATUS+0, 2
	GOTO       L_system21
	MOVF       _i+0, 0
	XORLW      7
	BTFSC      STATUS+0, 2
	GOTO       L_system22
	MOVF       _i+0, 0
	XORLW      9
	BTFSC      STATUS+0, 2
	GOTO       L_system23
	MOVF       _i+0, 0
	XORLW      10
	BTFSC      STATUS+0, 2
	GOTO       L_system24
	MOVF       _i+0, 0
	XORLW      11
	BTFSC      STATUS+0, 2
	GOTO       L_system25
	MOVF       _i+0, 0
	XORLW      12
	BTFSC      STATUS+0, 2
	GOTO       L_system26
	MOVF       _i+0, 0
	XORLW      13
	BTFSC      STATUS+0, 2
	GOTO       L_system27
	MOVF       _i+0, 0
	XORLW      14
	BTFSC      STATUS+0, 2
	GOTO       L_system28
	MOVF       _i+0, 0
	XORLW      15
	BTFSC      STATUS+0, 2
	GOTO       L_system29
	GOTO       L_system30
L_system15:
;security.c,218 :: 		}
	RETURN
; end of _system
